
key.elf:     file format elf32-littlearm


Disassembly of section .text:

20000000 <_start>:
20000000:	eb0000e8 	bl	200003a8 <main>

20000004 <halt>:
20000004:	eafffffe 	b	20000004 <halt>

20000008 <delay_key>:
20000008:	e52db004 	push	{fp}		; (str fp, [sp, #-4]!)
2000000c:	e28db000 	add	fp, sp, #0
20000010:	e24dd014 	sub	sp, sp, #20
20000014:	e50b0010 	str	r0, [fp, #-16]
20000018:	e30f3fff 	movw	r3, #65535	; 0xffff
2000001c:	e50b3008 	str	r3, [fp, #-8]
20000020:	ea000007 	b	20000044 <delay_key+0x3c>
20000024:	e51b3008 	ldr	r3, [fp, #-8]
20000028:	e2433001 	sub	r3, r3, #1
2000002c:	e50b3008 	str	r3, [fp, #-8]
20000030:	ea000000 	b	20000038 <delay_key+0x30>
20000034:	e1a00000 	nop			; (mov r0, r0)
20000038:	e51b3008 	ldr	r3, [fp, #-8]
2000003c:	e3530000 	cmp	r3, #0
20000040:	1afffff7 	bne	20000024 <delay_key+0x1c>
20000044:	e51b3010 	ldr	r3, [fp, #-16]
20000048:	e3530000 	cmp	r3, #0
2000004c:	03a02000 	moveq	r2, #0
20000050:	13a02001 	movne	r2, #1
20000054:	e6ef2072 	uxtb	r2, r2
20000058:	e2433001 	sub	r3, r3, #1
2000005c:	e50b3010 	str	r3, [fp, #-16]
20000060:	e3520000 	cmp	r2, #0
20000064:	1afffff2 	bne	20000034 <delay_key+0x2c>
20000068:	e28bd000 	add	sp, fp, #0
2000006c:	e8bd0800 	pop	{fp}
20000070:	e12fff1e 	bx	lr

20000074 <delay>:
20000074:	e52db004 	push	{fp}		; (str fp, [sp, #-4]!)
20000078:	e28db000 	add	fp, sp, #0
2000007c:	e24dd014 	sub	sp, sp, #20
20000080:	e50b0010 	str	r0, [fp, #-16]
20000084:	e51b3010 	ldr	r3, [fp, #-16]
20000088:	e50b3008 	str	r3, [fp, #-8]
2000008c:	e51b3008 	ldr	r3, [fp, #-8]
20000090:	e3530000 	cmp	r3, #0
20000094:	03a02000 	moveq	r2, #0
20000098:	13a02001 	movne	r2, #1
2000009c:	e6ef2072 	uxtb	r2, r2
200000a0:	e2433001 	sub	r3, r3, #1
200000a4:	e50b3008 	str	r3, [fp, #-8]
200000a8:	e3520000 	cmp	r2, #0
200000ac:	1afffff6 	bne	2000008c <delay+0x18>
200000b0:	e28bd000 	add	sp, fp, #0
200000b4:	e8bd0800 	pop	{fp}
200000b8:	e12fff1e 	bx	lr

200000bc <led>:
200000bc:	e52db004 	push	{fp}		; (str fp, [sp, #-4]!)
200000c0:	e28db000 	add	fp, sp, #0
200000c4:	e24dd00c 	sub	sp, sp, #12
200000c8:	e50b0008 	str	r0, [fp, #-8]
200000cc:	e50b100c 	str	r1, [fp, #-12]
200000d0:	e51b3008 	ldr	r3, [fp, #-8]
200000d4:	e3530003 	cmp	r3, #3
200000d8:	8a000077 	bhi	200002bc <led+0x200>
200000dc:	e51b300c 	ldr	r3, [fp, #-12]
200000e0:	e3530000 	cmp	r3, #0
200000e4:	0a000002 	beq	200000f4 <led+0x38>
200000e8:	e51b300c 	ldr	r3, [fp, #-12]
200000ec:	e3530001 	cmp	r3, #1
200000f0:	1a000073 	bne	200002c4 <led+0x208>
200000f4:	e51b300c 	ldr	r3, [fp, #-12]
200000f8:	e3530001 	cmp	r3, #1
200000fc:	1a000034 	bne	200001d4 <led+0x118>
20000100:	e51b3008 	ldr	r3, [fp, #-8]
20000104:	e3530003 	cmp	r3, #3
20000108:	979ff103 	ldrls	pc, [pc, r3, lsl #2]
2000010c:	ea00006e 	b	200002cc <led+0x210>
20000110:	20000120 	andcs	r0, r0, r0, lsr #2
20000114:	2000014c 	andcs	r0, r0, ip, asr #2
20000118:	20000178 	andcs	r0, r0, r8, ror r1
2000011c:	200001a4 	andcs	r0, r0, r4, lsr #3
20000120:	e3003284 	movw	r3, #644	; 0x284
20000124:	e34e3020 	movt	r3, #57376	; 0xe020
20000128:	e3002284 	movw	r2, #644	; 0x284
2000012c:	e34e2020 	movt	r2, #57376	; 0xe020
20000130:	e5921000 	ldr	r1, [r2]
20000134:	e51b2008 	ldr	r2, [fp, #-8]
20000138:	e3a00001 	mov	r0, #1
2000013c:	e1a02210 	lsl	r2, r0, r2
20000140:	e1812002 	orr	r2, r1, r2
20000144:	e5832000 	str	r2, [r3]
20000148:	ea000020 	b	200001d0 <led+0x114>
2000014c:	e3003284 	movw	r3, #644	; 0x284
20000150:	e34e3020 	movt	r3, #57376	; 0xe020
20000154:	e3002284 	movw	r2, #644	; 0x284
20000158:	e34e2020 	movt	r2, #57376	; 0xe020
2000015c:	e5921000 	ldr	r1, [r2]
20000160:	e51b2008 	ldr	r2, [fp, #-8]
20000164:	e3a00001 	mov	r0, #1
20000168:	e1a02210 	lsl	r2, r0, r2
2000016c:	e1812002 	orr	r2, r1, r2
20000170:	e5832000 	str	r2, [r3]
20000174:	ea000015 	b	200001d0 <led+0x114>
20000178:	e3003284 	movw	r3, #644	; 0x284
2000017c:	e34e3020 	movt	r3, #57376	; 0xe020
20000180:	e3002284 	movw	r2, #644	; 0x284
20000184:	e34e2020 	movt	r2, #57376	; 0xe020
20000188:	e5921000 	ldr	r1, [r2]
2000018c:	e51b2008 	ldr	r2, [fp, #-8]
20000190:	e3a00001 	mov	r0, #1
20000194:	e1a02210 	lsl	r2, r0, r2
20000198:	e1812002 	orr	r2, r1, r2
2000019c:	e5832000 	str	r2, [r3]
200001a0:	ea00000a 	b	200001d0 <led+0x114>
200001a4:	e3003284 	movw	r3, #644	; 0x284
200001a8:	e34e3020 	movt	r3, #57376	; 0xe020
200001ac:	e3002284 	movw	r2, #644	; 0x284
200001b0:	e34e2020 	movt	r2, #57376	; 0xe020
200001b4:	e5921000 	ldr	r1, [r2]
200001b8:	e51b2008 	ldr	r2, [fp, #-8]
200001bc:	e3a00001 	mov	r0, #1
200001c0:	e1a02210 	lsl	r2, r0, r2
200001c4:	e1812002 	orr	r2, r1, r2
200001c8:	e5832000 	str	r2, [r3]
200001cc:	ea000041 	b	200002d8 <led+0x21c>
200001d0:	ea000040 	b	200002d8 <led+0x21c>
200001d4:	e51b3008 	ldr	r3, [fp, #-8]
200001d8:	e3530003 	cmp	r3, #3
200001dc:	979ff103 	ldrls	pc, [pc, r3, lsl #2]
200001e0:	ea00003b 	b	200002d4 <led+0x218>
200001e4:	200001f4 	strdcs	r0, [r0], -r4
200001e8:	20000224 	andcs	r0, r0, r4, lsr #4
200001ec:	20000254 	andcs	r0, r0, r4, asr r2
200001f0:	20000284 	andcs	r0, r0, r4, lsl #5
200001f4:	e3003284 	movw	r3, #644	; 0x284
200001f8:	e34e3020 	movt	r3, #57376	; 0xe020
200001fc:	e3002284 	movw	r2, #644	; 0x284
20000200:	e34e2020 	movt	r2, #57376	; 0xe020
20000204:	e5921000 	ldr	r1, [r2]
20000208:	e51b2008 	ldr	r2, [fp, #-8]
2000020c:	e3a00001 	mov	r0, #1
20000210:	e1a02210 	lsl	r2, r0, r2
20000214:	e1e02002 	mvn	r2, r2
20000218:	e0012002 	and	r2, r1, r2
2000021c:	e5832000 	str	r2, [r3]
20000220:	ea000023 	b	200002b4 <led+0x1f8>
20000224:	e3003284 	movw	r3, #644	; 0x284
20000228:	e34e3020 	movt	r3, #57376	; 0xe020
2000022c:	e3002284 	movw	r2, #644	; 0x284
20000230:	e34e2020 	movt	r2, #57376	; 0xe020
20000234:	e5921000 	ldr	r1, [r2]
20000238:	e51b2008 	ldr	r2, [fp, #-8]
2000023c:	e3a00001 	mov	r0, #1
20000240:	e1a02210 	lsl	r2, r0, r2
20000244:	e1e02002 	mvn	r2, r2
20000248:	e0012002 	and	r2, r1, r2
2000024c:	e5832000 	str	r2, [r3]
20000250:	ea000017 	b	200002b4 <led+0x1f8>
20000254:	e3003284 	movw	r3, #644	; 0x284
20000258:	e34e3020 	movt	r3, #57376	; 0xe020
2000025c:	e3002284 	movw	r2, #644	; 0x284
20000260:	e34e2020 	movt	r2, #57376	; 0xe020
20000264:	e5921000 	ldr	r1, [r2]
20000268:	e51b2008 	ldr	r2, [fp, #-8]
2000026c:	e3a00001 	mov	r0, #1
20000270:	e1a02210 	lsl	r2, r0, r2
20000274:	e1e02002 	mvn	r2, r2
20000278:	e0012002 	and	r2, r1, r2
2000027c:	e5832000 	str	r2, [r3]
20000280:	ea00000b 	b	200002b4 <led+0x1f8>
20000284:	e3003284 	movw	r3, #644	; 0x284
20000288:	e34e3020 	movt	r3, #57376	; 0xe020
2000028c:	e3002284 	movw	r2, #644	; 0x284
20000290:	e34e2020 	movt	r2, #57376	; 0xe020
20000294:	e5921000 	ldr	r1, [r2]
20000298:	e51b2008 	ldr	r2, [fp, #-8]
2000029c:	e3a00001 	mov	r0, #1
200002a0:	e1a02210 	lsl	r2, r0, r2
200002a4:	e1e02002 	mvn	r2, r2
200002a8:	e0012002 	and	r2, r1, r2
200002ac:	e5832000 	str	r2, [r3]
200002b0:	ea000008 	b	200002d8 <led+0x21c>
200002b4:	e1a00000 	nop			; (mov r0, r0)
200002b8:	ea000006 	b	200002d8 <led+0x21c>
200002bc:	e1a00000 	nop			; (mov r0, r0)
200002c0:	ea000004 	b	200002d8 <led+0x21c>
200002c4:	e1a00000 	nop			; (mov r0, r0)
200002c8:	ea000002 	b	200002d8 <led+0x21c>
200002cc:	e1a00000 	nop			; (mov r0, r0)
200002d0:	ea000000 	b	200002d8 <led+0x21c>
200002d4:	e1a00000 	nop			; (mov r0, r0)
200002d8:	e28bd000 	add	sp, fp, #0
200002dc:	e8bd0800 	pop	{fp}
200002e0:	e12fff1e 	bx	lr

200002e4 <circle_on>:
200002e4:	e92d4800 	push	{fp, lr}
200002e8:	e28db004 	add	fp, sp, #4
200002ec:	e24dd008 	sub	sp, sp, #8
200002f0:	e50b0008 	str	r0, [fp, #-8]
200002f4:	e51b3008 	ldr	r3, [fp, #-8]
200002f8:	e3530001 	cmp	r3, #1
200002fc:	1a000027 	bne	200003a0 <circle_on+0xbc>
20000300:	e3a00000 	mov	r0, #0
20000304:	e3a01000 	mov	r1, #0
20000308:	ebffff6b 	bl	200000bc <led>
2000030c:	e3a00601 	mov	r0, #1048576	; 0x100000
20000310:	ebffff57 	bl	20000074 <delay>
20000314:	e3a00000 	mov	r0, #0
20000318:	e3a01001 	mov	r1, #1
2000031c:	ebffff66 	bl	200000bc <led>
20000320:	e3a00601 	mov	r0, #1048576	; 0x100000
20000324:	ebffff52 	bl	20000074 <delay>
20000328:	e3a00001 	mov	r0, #1
2000032c:	e3a01000 	mov	r1, #0
20000330:	ebffff61 	bl	200000bc <led>
20000334:	e3a00601 	mov	r0, #1048576	; 0x100000
20000338:	ebffff4d 	bl	20000074 <delay>
2000033c:	e3a00001 	mov	r0, #1
20000340:	e3a01001 	mov	r1, #1
20000344:	ebffff5c 	bl	200000bc <led>
20000348:	e3a00601 	mov	r0, #1048576	; 0x100000
2000034c:	ebffff48 	bl	20000074 <delay>
20000350:	e3a00002 	mov	r0, #2
20000354:	e3a01000 	mov	r1, #0
20000358:	ebffff57 	bl	200000bc <led>
2000035c:	e3a00601 	mov	r0, #1048576	; 0x100000
20000360:	ebffff43 	bl	20000074 <delay>
20000364:	e3a00002 	mov	r0, #2
20000368:	e3a01001 	mov	r1, #1
2000036c:	ebffff52 	bl	200000bc <led>
20000370:	e3a00601 	mov	r0, #1048576	; 0x100000
20000374:	ebffff3e 	bl	20000074 <delay>
20000378:	e3a00003 	mov	r0, #3
2000037c:	e3a01000 	mov	r1, #0
20000380:	ebffff4d 	bl	200000bc <led>
20000384:	e3a00601 	mov	r0, #1048576	; 0x100000
20000388:	ebffff39 	bl	20000074 <delay>
2000038c:	e3a00003 	mov	r0, #3
20000390:	e3a01001 	mov	r1, #1
20000394:	ebffff48 	bl	200000bc <led>
20000398:	e3a00601 	mov	r0, #1048576	; 0x100000
2000039c:	ebffff34 	bl	20000074 <delay>
200003a0:	e24bd004 	sub	sp, fp, #4
200003a4:	e8bd8800 	pop	{fp, pc}

200003a8 <main>:
200003a8:	e92d4800 	push	{fp, lr}
200003ac:	e28db004 	add	fp, sp, #4
200003b0:	e24dd010 	sub	sp, sp, #16
200003b4:	e50b0010 	str	r0, [fp, #-16]
200003b8:	e50b1014 	str	r1, [fp, #-20]
200003bc:	e3a03001 	mov	r3, #1
200003c0:	e50b3008 	str	r3, [fp, #-8]
200003c4:	e3003280 	movw	r3, #640	; 0x280
200003c8:	e34e3020 	movt	r3, #57376	; 0xe020
200003cc:	e3002280 	movw	r2, #640	; 0x280
200003d0:	e34e2020 	movt	r2, #57376	; 0xe020
200003d4:	e5922000 	ldr	r2, [r2]
200003d8:	e3822c11 	orr	r2, r2, #4352	; 0x1100
200003dc:	e3822011 	orr	r2, r2, #17
200003e0:	e5832000 	str	r2, [r3]
200003e4:	e3003284 	movw	r3, #644	; 0x284
200003e8:	e34e3020 	movt	r3, #57376	; 0xe020
200003ec:	e3002284 	movw	r2, #644	; 0x284
200003f0:	e34e2020 	movt	r2, #57376	; 0xe020
200003f4:	e5922000 	ldr	r2, [r2]
200003f8:	e382200f 	orr	r2, r2, #15
200003fc:	e5832000 	str	r2, [r3]
20000400:	e3003c60 	movw	r3, #3168	; 0xc60
20000404:	e34e3020 	movt	r3, #57376	; 0xe020
20000408:	e3002c60 	movw	r2, #3168	; 0xc60
2000040c:	e34e2020 	movt	r2, #57376	; 0xe020
20000410:	e5922000 	ldr	r2, [r2]
20000414:	e3c22a0f 	bic	r2, r2, #61440	; 0xf000
20000418:	e5832000 	str	r2, [r3]
2000041c:	ea000002 	b	2000042c <main+0x84>
20000420:	e1a00000 	nop			; (mov r0, r0)
20000424:	ea000000 	b	2000042c <main+0x84>
20000428:	e1a00000 	nop			; (mov r0, r0)
2000042c:	e3003c64 	movw	r3, #3172	; 0xc64
20000430:	e34e3020 	movt	r3, #57376	; 0xe020
20000434:	e5933000 	ldr	r3, [r3]
20000438:	e2033008 	and	r3, r3, #8
2000043c:	e50b3008 	str	r3, [fp, #-8]
20000440:	e51b3008 	ldr	r3, [fp, #-8]
20000444:	e3530000 	cmp	r3, #0
20000448:	1afffff4 	bne	20000420 <main+0x78>
2000044c:	e30c0350 	movw	r0, #50000	; 0xc350
20000450:	ebfffeec 	bl	20000008 <delay_key>
20000454:	e51b3008 	ldr	r3, [fp, #-8]
20000458:	e3530000 	cmp	r3, #0
2000045c:	1afffff1 	bne	20000428 <main+0x80>
20000460:	e3a00001 	mov	r0, #1
20000464:	ebffff9e 	bl	200002e4 <circle_on>
20000468:	eaffffef 	b	2000042c <main+0x84>

Disassembly of section .ARM.attributes:

00000000 <.ARM.attributes>:
   0:	00002e41 	andeq	r2, r0, r1, asr #28
   4:	61656100 	cmnvs	r5, r0, lsl #2
   8:	01006962 	tsteq	r0, r2, ror #18
   c:	00000024 	andeq	r0, r0, r4, lsr #32
  10:	412d3705 	teqmi	sp, r5, lsl #14
  14:	070a0600 	streq	r0, [sl, -r0, lsl #12]
  18:	09010841 	stmdbeq	r1, {r0, r6, fp}
  1c:	0c030a02 	stceq	10, cr0, [r3], {2}
  20:	14041201 	strne	r1, [r4], #-513	; 0x201
  24:	17011501 	strne	r1, [r1, -r1, lsl #10]
  28:	1a011803 	bne	4603c <_start-0x1ffb9fc4>
  2c:	Address 0x0000002c is out of bounds.


Disassembly of section .comment:

00000000 <.comment>:
   0:	3a434347 	bcc	10d0d24 <_start-0x1ef2f2dc>
   4:	6f662820 	svcvs	0x00662820
   8:	57432072 	smlsldxpl	r2, r3, r2, r0
   c:	20303132 	eorscs	r3, r0, r2, lsr r1
  10:	636e6f43 	cmnvs	lr, #268	; 0x10c
  14:	69776e65 	ldmdbvs	r7!, {r0, r2, r5, r6, r9, sl, fp, sp, lr}^
  18:	65542074 	ldrbvs	r2, [r4, #-116]	; 0x74
  1c:	20296863 	eorcs	r6, r9, r3, ror #16
  20:	2e342e34 	mrccs	14, 1, r2, cr4, cr4, {1}
  24:	Address 0x00000024 is out of bounds.

